; Function Attrs: mustprogress nounwind uwtable
define internal void @_ZN12_GLOBAL__N_123ObjCSuperDeallocCheckerD2Ev(ptr noundef nonnull align 8 dereferenceable(160) %0) unnamed_addr #0 align 2 {
  store ptr getelementptr inbounds inrange(-16, 32) (i8, ptr @_ZTVN12_GLOBAL__N_123ObjCSuperDeallocCheckerE, i64 16), ptr %0, align 8
  %2 = getelementptr inbounds nuw i8, ptr %0, i64 56
  store ptr getelementptr inbounds inrange(-16, 24) (i8, ptr @_ZTVN5clang4ento7BugTypeE, i64 16), ptr %2, align 8
  %3 = getelementptr inbounds i8, ptr %0, i64 112
  tail call void @_ZNSt7__cxx1112basic_stringIcSt11char_traitsIcESaIcEED1Ev(ptr noundef nonnull align 8 dereferenceable(32) %3) #18
  %4 = getelementptr inbounds i8, ptr %0, i64 80
  tail call void @_ZNSt7__cxx1112basic_stringIcSt11char_traitsIcESaIcEED1Ev(ptr noundef nonnull align 8 dereferenceable(32) %4) #18
  tail call void @_ZN5clang15ProgramPointTagD2Ev(ptr noundef nonnull align 8 dereferenceable(16) %0) #18
  ret void
}